(lp0
(dp1
S'manufacturer'
p2
S'Roshen'
p3
sS'name'
p4
S'Chocolate'
p5
sS'provider'
p6
S'Roshen'
p7
sa(dp8
S'price'
p9
S'14.59'
p10
sS'quantity'
p11
S'100'
p12
sS'type'
p13
S'Chocolate'
p14
sS'provision date'
p15
S'14.09.16'
p16
sS'name'
p17
S'Chaika'
p18
sa.