(lp0
(dp1
S'provider'
p2
S'Leonardo'
p3
sS'name'
p4
S'Cake'
p5
sS'manufacturer'
p6
S'Roshen'
p7
sa(dp8
S'provision date'
p9
S'13.10.16'
p10
sS'price'
p11
S'108.00'
p12
sS'type'
p13
S'Cake'
p14
sg4
S'Kyivskyi'
p15
sS'quantity'
p16
S'20'
p17
sa(dp18
g2
S'Leonardo'
p19
sg4
S'Chocolate'
p20
sg6
S'Roshen'
p21
sa(dp22
g9
S'13.10.16'
p23
sg11
S'14.60'
p24
sg13
S'Chocolate'
p25
sg4
S'Olenka'
p26
sg16
S'100'
p27
sa(dp28
g9
S'13.10.16'
p29
sg11
S'14.60'
p30
sg13
S'Chocolate'
p31
sg4
S'Chaika'
p32
sg16
S'100'
p33
sa(dp34
g2
S'Ahmed'
p35
sg4
S'Pen'
p36
sg6
S'Bic'
p37
sa(dp38
g9
S'25.09.16'
p39
sg11
S'3.50'
p40
sg13
S'Pen'
p41
sg4
S'Bic Orange'
p42
sg16
S'150'
p43
sa.