(lp0
(dp1
S'manufacturer'
p2
S'Roshen'
p3
sS'name'
p4
S'Cake'
p5
sS'provider'
p6
S'Leonardo'
p7
sa(dp8
S'price'
p9
S'108.00'
p10
sS'quantity'
p11
S'20'
p12
sS'type'
p13
S'Cake'
p14
sS'provision date'
p15
S'13.10.16'
p16
sg4
S'Kyivskyi'
p17
sa(dp18
g2
S'Roshen'
p19
sg4
S'Chocolate'
p20
sg6
S'Leonardo'
p21
sa(dp22
g9
S'14.60'
p23
sg11
S'100'
p24
sg13
S'Chocolate'
p25
sg15
S'13.10.16'
p26
sg4
S'Olenka'
p27
sa(dp28
g9
S'14.60'
p29
sg11
S'100'
p30
sg13
S'Chocolate'
p31
sg15
S'13.10.16'
p32
sg4
S'Chaika'
p33
sa(dp34
g2
S'Bic'
p35
sg4
S'Pen'
p36
sg6
S'Ahmed'
p37
sa(dp38
g9
S'3.50'
p39
sg11
S'150'
p40
sg13
S'Pen'
p41
sg15
S'25.09.16'
p42
sg4
S'Bic Orange'
p43
sa.